target datalayout = "e-m:e-p270:32:32-p271:32:32-p272:64:64-i64:64-i128:128-f80:128-n8:16:32:64-S128"
target triple = "x86_64-pc-linux-gnu"

%struct.expert_field = type { i32, i32 }

@ei_pfcp_ie_data_not_decoded = internal global %struct.expert_field zeroinitializer, align 4

; Function Attrs: null_pointer_is_valid sspstrong uwtable
define internal void @dissect_pfcp_usage_report_trigger(ptr noundef %0, ptr noundef %1, ptr noundef %2, ptr noundef %3, i16 noundef zeroext %4, i8 noundef zeroext %5, ptr noundef %6) #0 {
  %8 = alloca ptr, align 8
  %9 = alloca ptr, align 8
  %10 = alloca ptr, align 8
  %11 = alloca ptr, align 8
  %12 = alloca i16, align 2
  %13 = alloca i8, align 1
  %14 = alloca ptr, align 8
  %15 = alloca i32, align 4
  %16 = alloca i32, align 4
  store ptr %0, ptr %8, align 8
  store ptr %1, ptr %9, align 8
  store ptr %2, ptr %10, align 8
  store ptr %3, ptr %11, align 8
  store i16 %4, ptr %12, align 2
  store i8 %5, ptr %13, align 1
  store ptr %6, ptr %14, align 8
  call void @llvm.lifetime.start.p0(i64 4, ptr %15) #13
  store i32 0, ptr %15, align 4
  %17 = load ptr, ptr %10, align 8
  %18 = load ptr, ptr %8, align 8
  %19 = load i32, ptr %15, align 4
  call void @proto_tree_add_bitmask_list(ptr noundef %17, ptr noundef %18, i32 noundef %19, i32 noundef 1, ptr noundef @dissect_pfcp_usage_report_trigger.pfcp_usage_report_trigger_o5_flags, i32 noundef 0)
  %20 = load i32, ptr %15, align 4
  %21 = add i32 %20, 1
  store i32 %21, ptr %15, align 4
  %22 = load i32, ptr %15, align 4
  %23 = load i16, ptr %12, align 2
  %24 = zext i16 %23 to i32
  %25 = icmp eq i32 %22, %24
  br i1 %25, label %26, label %27

26:                                               ; preds = %7
  store i32 1, ptr %16, align 4
  br label %61

27:                                               ; preds = %7
  %28 = load ptr, ptr %10, align 8
  %29 = load ptr, ptr %8, align 8
  %30 = load i32, ptr %15, align 4
  call void @proto_tree_add_bitmask_list(ptr noundef %28, ptr noundef %29, i32 noundef %30, i32 noundef 1, ptr noundef @dissect_pfcp_usage_report_trigger.pfcp_usage_report_trigger_o6_flags, i32 noundef 0)
  %31 = load i32, ptr %15, align 4
  %32 = add i32 %31, 1
  store i32 %32, ptr %15, align 4
  %33 = load i32, ptr %15, align 4
  %34 = load i16, ptr %12, align 2
  %35 = zext i16 %34 to i32
  %36 = icmp eq i32 %33, %35
  br i1 %36, label %37, label %38

37:                                               ; preds = %27
  store i32 1, ptr %16, align 4
  br label %61

38:                                               ; preds = %27
  %39 = load ptr, ptr %10, align 8
  %40 = load ptr, ptr %8, align 8
  %41 = load i32, ptr %15, align 4
  call void @proto_tree_add_bitmask_list(ptr noundef %39, ptr noundef %40, i32 noundef %41, i32 noundef 1, ptr noundef @dissect_pfcp_usage_report_trigger.pfcp_usage_report_trigger_o7_flags, i32 noundef 0)
  %42 = load i32, ptr %15, align 4
  %43 = add i32 %42, 1
  store i32 %43, ptr %15, align 4
  %44 = load i32, ptr %15, align 4
  %45 = load i16, ptr %12, align 2
  %46 = zext i16 %45 to i32
  %47 = icmp eq i32 %44, %46
  br i1 %47, label %48, label %49

48:                                               ; preds = %38
  store i32 1, ptr %16, align 4
  br label %61

49:                                               ; preds = %38
  %50 = load i32, ptr %15, align 4
  %51 = load i16, ptr %12, align 2
  %52 = zext i16 %51 to i32
  %53 = icmp slt i32 %50, %52
  br i1 %53, label %54, label %60

54:                                               ; preds = %49
  %55 = load ptr, ptr %10, align 8
  %56 = load ptr, ptr %9, align 8
  %57 = load ptr, ptr %8, align 8
  %58 = load i32, ptr %15, align 4
  %59 = call ptr @proto_tree_add_expert(ptr noundef %55, ptr noundef %56, ptr noundef @ei_pfcp_ie_data_not_decoded, ptr noundef %57, i32 noundef %58, i32 noundef -1)
  br label %60

60:                                               ; preds = %54, %49
  store i32 0, ptr %16, align 4
  br label %61

61:                                               ; preds = %60, %48, %37, %26
  call void @llvm.lifetime.end.p0(i64 4, ptr %15) #13
  %62 = load i32, ptr %16, align 4
  switch i32 %62, label %64 [
    i32 0, label %63
    i32 1, label %63
  ]

63:                                               ; preds = %61, %61
  ret void

64:                                               ; preds = %61
  unreachable
}